; Function Attrs: mustprogress uwtable
define ptr @lean_dynlib_get(ptr noundef readonly captures(none) %0, ptr noundef %1) local_unnamed_addr #0 {
  %3 = tail call ptr @dlerror() #18
  %4 = getelementptr i8, ptr %0, i64 16
  %.val = load ptr, ptr %4, align 8, !tbaa !44
  %5 = getelementptr inbounds nuw i8, ptr %1, i64 32
  %6 = tail call ptr @dlsym(ptr noundef %.val, ptr noundef nonnull %5) #18
  %7 = tail call ptr @dlerror() #18
  %.not = icmp eq ptr %7, null
  br i1 %.not, label %8, label %21

8:                                                ; preds = %2
  %9 = load ptr, ptr @_ZN4leanL30g_dynlib_symbol_external_classE, align 8, !tbaa !3
  tail call void @lean_inc_heartbeat()
  %10 = tail call noalias ptr @mi_malloc_small(i64 noundef 24) #18
  %11 = icmp eq ptr %10, null
  br i1 %11, label %12, label %_ZN4leanL11wrap_symbolEPv.exit

12:                                               ; preds = %8
  tail call void @lean_internal_panic_out_of_memory() #20
  unreachable

_ZN4leanL11wrap_symbolEPv.exit:                   ; preds = %8
  %13 = getelementptr inbounds nuw i8, ptr %10, i64 4
  store i32 1, ptr %10, align 4, !tbaa !40
  store i32 -33554408, ptr %13, align 4
  %14 = getelementptr inbounds nuw i8, ptr %10, i64 8
  store ptr %9, ptr %14, align 8, !tbaa !42
  %15 = getelementptr inbounds nuw i8, ptr %10, i64 16
  store ptr %6, ptr %15, align 8, !tbaa !44
  tail call void @lean_inc_heartbeat()
  %16 = tail call noalias ptr @mi_malloc_small(i64 noundef 16) #18
  %17 = icmp eq ptr %16, null
  br i1 %17, label %18, label %_ZN4lean14mk_option_someEP11lean_object.exit

18:                                               ; preds = %_ZN4leanL11wrap_symbolEPv.exit
  tail call void @lean_internal_panic_out_of_memory() #20
  unreachable

_ZN4lean14mk_option_someEP11lean_object.exit:     ; preds = %_ZN4leanL11wrap_symbolEPv.exit
  %19 = getelementptr inbounds nuw i8, ptr %16, i64 4
  store i32 1, ptr %16, align 4, !tbaa !40
  store i32 16842768, ptr %19, align 4
  %20 = getelementptr inbounds nuw i8, ptr %16, i64 8
  store ptr %10, ptr %20, align 8, !tbaa !3
  br label %21

21:                                               ; preds = %2, %_ZN4lean14mk_option_someEP11lean_object.exit
  %.0 = phi ptr [ %16, %_ZN4lean14mk_option_someEP11lean_object.exit ], [ inttoptr (i64 1 to ptr), %2 ]
  ret ptr %.0
}